target datalayout = "e-m:e-p270:32:32-p271:32:32-p272:64:64-i64:64-i128:128-f80:128-n8:16:32:64-S128"
target triple = "x86_64-pc-linux-gnu"

%struct.ps_files = type { ptr, ptr, i64, i64, i32, i32 }
%struct.stat = type { i64, i64, i64, i32, i32, i32, i32, i64, i64, i64, i64, %struct.timespec, %struct.timespec, %struct.timespec, [3 x i64] }
%struct.timespec = type { i64, i64 }
%struct._zend_string = type { %struct._zend_refcounted_h, i64, i64, [1 x i8] }
%struct._zend_refcounted_h = type { i32, %union.anon }
%union.anon = type { i32 }

@.str.12 = private unnamed_addr constant [6 x i8] c"sess_\00", align 1

; Function Attrs: nounwind uwtable
define internal ptr @ps_files_path_create(ptr noundef %0, i64 noundef %1, ptr noundef %2, ptr noundef %3) #0 {
  %5 = alloca ptr, align 8
  %6 = alloca ptr, align 8
  %7 = alloca i64, align 8
  %8 = alloca ptr, align 8
  %9 = alloca ptr, align 8
  %10 = alloca ptr, align 8
  %11 = alloca i32, align 4
  %12 = alloca i64, align 8
  %13 = alloca i32, align 4
  store ptr %0, ptr %6, align 8, !tbaa !8
  store i64 %1, ptr %7, align 8, !tbaa !12
  store ptr %2, ptr %8, align 8, !tbaa !4
  store ptr %3, ptr %9, align 8, !tbaa !22
  call void @llvm.lifetime.start.p0(i64 8, ptr %10) #13
  call void @llvm.lifetime.start.p0(i64 4, ptr %11) #13
  call void @llvm.lifetime.start.p0(i64 8, ptr %12) #13
  %14 = load ptr, ptr %8, align 8, !tbaa !4
  %15 = icmp ne ptr %14, null
  br i1 %15, label %16, label %43

16:                                               ; preds = %4
  %17 = load ptr, ptr %9, align 8, !tbaa !22
  %18 = getelementptr inbounds nuw %struct._zend_string, ptr %17, i32 0, i32 2
  %19 = load i64, ptr %18, align 8, !tbaa !29
  %20 = load ptr, ptr %8, align 8, !tbaa !4
  %21 = getelementptr inbounds nuw %struct.ps_files, ptr %20, i32 0, i32 2
  %22 = load i64, ptr %21, align 8, !tbaa !18
  %23 = icmp ule i64 %19, %22
  br i1 %23, label %43, label %24

24:                                               ; preds = %16
  %25 = load i64, ptr %7, align 8, !tbaa !12
  %26 = load ptr, ptr %8, align 8, !tbaa !4
  %27 = getelementptr inbounds nuw %struct.ps_files, ptr %26, i32 0, i32 1
  %28 = load ptr, ptr %27, align 8, !tbaa !20
  %29 = getelementptr inbounds nuw %struct._zend_string, ptr %28, i32 0, i32 2
  %30 = load i64, ptr %29, align 8, !tbaa !29
  %31 = load ptr, ptr %8, align 8, !tbaa !4
  %32 = getelementptr inbounds nuw %struct.ps_files, ptr %31, i32 0, i32 2
  %33 = load i64, ptr %32, align 8, !tbaa !18
  %34 = mul i64 2, %33
  %35 = add i64 %30, %34
  %36 = load ptr, ptr %9, align 8, !tbaa !22
  %37 = getelementptr inbounds nuw %struct._zend_string, ptr %36, i32 0, i32 2
  %38 = load i64, ptr %37, align 8, !tbaa !29
  %39 = add i64 %35, %38
  %40 = add i64 %39, 5
  %41 = add i64 %40, 6
  %42 = icmp ult i64 %25, %41
  br i1 %42, label %43, label %44

43:                                               ; preds = %24, %16, %4
  store ptr null, ptr %5, align 8
  store i32 1, ptr %13, align 4
  br label %114

44:                                               ; preds = %24
  %45 = load ptr, ptr %9, align 8, !tbaa !22
  %46 = getelementptr inbounds nuw %struct._zend_string, ptr %45, i32 0, i32 3
  %47 = getelementptr inbounds [1 x i8], ptr %46, i64 0, i64 0
  store ptr %47, ptr %10, align 8, !tbaa !8
  %48 = load ptr, ptr %6, align 8, !tbaa !8
  %49 = load ptr, ptr %8, align 8, !tbaa !4
  %50 = getelementptr inbounds nuw %struct.ps_files, ptr %49, i32 0, i32 1
  %51 = load ptr, ptr %50, align 8, !tbaa !20
  %52 = getelementptr inbounds nuw %struct._zend_string, ptr %51, i32 0, i32 3
  %53 = getelementptr inbounds [1 x i8], ptr %52, i64 0, i64 0
  %54 = load ptr, ptr %8, align 8, !tbaa !4
  %55 = getelementptr inbounds nuw %struct.ps_files, ptr %54, i32 0, i32 1
  %56 = load ptr, ptr %55, align 8, !tbaa !20
  %57 = getelementptr inbounds nuw %struct._zend_string, ptr %56, i32 0, i32 2
  %58 = load i64, ptr %57, align 8, !tbaa !29
  call void @llvm.memcpy.p0.p0.i64(ptr align 1 %48, ptr align 8 %53, i64 %58, i1 false)
  %59 = load ptr, ptr %8, align 8, !tbaa !4
  %60 = getelementptr inbounds nuw %struct.ps_files, ptr %59, i32 0, i32 1
  %61 = load ptr, ptr %60, align 8, !tbaa !20
  %62 = getelementptr inbounds nuw %struct._zend_string, ptr %61, i32 0, i32 2
  %63 = load i64, ptr %62, align 8, !tbaa !29
  store i64 %63, ptr %12, align 8, !tbaa !12
  %64 = load ptr, ptr %6, align 8, !tbaa !8
  %65 = load i64, ptr %12, align 8, !tbaa !12
  %66 = add i64 %65, 1
  store i64 %66, ptr %12, align 8, !tbaa !12
  %67 = getelementptr inbounds nuw i8, ptr %64, i64 %65
  store i8 47, ptr %67, align 1, !tbaa !14
  store i32 0, ptr %11, align 4, !tbaa !10
  br label %68

68:                                               ; preds = %87, %44
  %69 = load i32, ptr %11, align 4, !tbaa !10
  %70 = load ptr, ptr %8, align 8, !tbaa !4
  %71 = getelementptr inbounds nuw %struct.ps_files, ptr %70, i32 0, i32 2
  %72 = load i64, ptr %71, align 8, !tbaa !18
  %73 = trunc i64 %72 to i32
  %74 = icmp slt i32 %69, %73
  br i1 %74, label %75, label %90

75:                                               ; preds = %68
  %76 = load ptr, ptr %10, align 8, !tbaa !8
  %77 = getelementptr inbounds nuw i8, ptr %76, i32 1
  store ptr %77, ptr %10, align 8, !tbaa !8
  %78 = load i8, ptr %76, align 1, !tbaa !14
  %79 = load ptr, ptr %6, align 8, !tbaa !8
  %80 = load i64, ptr %12, align 8, !tbaa !12
  %81 = add i64 %80, 1
  store i64 %81, ptr %12, align 8, !tbaa !12
  %82 = getelementptr inbounds nuw i8, ptr %79, i64 %80
  store i8 %78, ptr %82, align 1, !tbaa !14
  %83 = load ptr, ptr %6, align 8, !tbaa !8
  %84 = load i64, ptr %12, align 8, !tbaa !12
  %85 = add i64 %84, 1
  store i64 %85, ptr %12, align 8, !tbaa !12
  %86 = getelementptr inbounds nuw i8, ptr %83, i64 %84
  store i8 47, ptr %86, align 1, !tbaa !14
  br label %87

87:                                               ; preds = %75
  %88 = load i32, ptr %11, align 4, !tbaa !10
  %89 = add nsw i32 %88, 1
  store i32 %89, ptr %11, align 4, !tbaa !10
  br label %68

90:                                               ; preds = %68
  %91 = load ptr, ptr %6, align 8, !tbaa !8
  %92 = load i64, ptr %12, align 8, !tbaa !12
  %93 = getelementptr inbounds nuw i8, ptr %91, i64 %92
  call void @llvm.memcpy.p0.p0.i64(ptr align 1 %93, ptr align 1 @.str.12, i64 5, i1 false)
  %94 = load i64, ptr %12, align 8, !tbaa !12
  %95 = add i64 %94, 5
  store i64 %95, ptr %12, align 8, !tbaa !12
  %96 = load ptr, ptr %6, align 8, !tbaa !8
  %97 = load i64, ptr %12, align 8, !tbaa !12
  %98 = getelementptr inbounds nuw i8, ptr %96, i64 %97
  %99 = load ptr, ptr %9, align 8, !tbaa !22
  %100 = getelementptr inbounds nuw %struct._zend_string, ptr %99, i32 0, i32 3
  %101 = getelementptr inbounds [1 x i8], ptr %100, i64 0, i64 0
  %102 = load ptr, ptr %9, align 8, !tbaa !22
  %103 = getelementptr inbounds nuw %struct._zend_string, ptr %102, i32 0, i32 2
  %104 = load i64, ptr %103, align 8, !tbaa !29
  call void @llvm.memcpy.p0.p0.i64(ptr align 1 %98, ptr align 8 %101, i64 %104, i1 false)
  %105 = load ptr, ptr %9, align 8, !tbaa !22
  %106 = getelementptr inbounds nuw %struct._zend_string, ptr %105, i32 0, i32 2
  %107 = load i64, ptr %106, align 8, !tbaa !29
  %108 = load i64, ptr %12, align 8, !tbaa !12
  %109 = add i64 %108, %107
  store i64 %109, ptr %12, align 8, !tbaa !12
  %110 = load ptr, ptr %6, align 8, !tbaa !8
  %111 = load i64, ptr %12, align 8, !tbaa !12
  %112 = getelementptr inbounds nuw i8, ptr %110, i64 %111
  store i8 0, ptr %112, align 1, !tbaa !14
  %113 = load ptr, ptr %6, align 8, !tbaa !8
  store ptr %113, ptr %5, align 8
  store i32 1, ptr %13, align 4
  br label %114

114:                                              ; preds = %90, %43
  call void @llvm.lifetime.end.p0(i64 8, ptr %12) #13
  call void @llvm.lifetime.end.p0(i64 4, ptr %11) #13
  call void @llvm.lifetime.end.p0(i64 8, ptr %10) #13
  %115 = load ptr, ptr %5, align 8
  ret ptr %115
}

; Function Attrs: nounwind uwtable
define internal i32 @ps_files_key_exists(ptr noundef %0, ptr noundef %1) #0 {
  %3 = alloca i32, align 4
  %4 = alloca ptr, align 8
  %5 = alloca ptr, align 8
  %6 = alloca [4096 x i8], align 16
  %7 = alloca %struct.stat, align 8
  %8 = alloca i32, align 4
  store ptr %0, ptr %4, align 8, !tbaa !4
  store ptr %1, ptr %5, align 8, !tbaa !22
  call void @llvm.lifetime.start.p0(i64 4096, ptr %6) #13
  call void @llvm.lifetime.start.p0(i64 144, ptr %7) #13
  call void @llvm.memset.p0.i64(ptr align 8 %7, i8 0, i64 144, i1 false)
  %9 = load ptr, ptr %5, align 8, !tbaa !22
  %10 = icmp ne ptr %9, null
  br i1 %10, label %11, label %17

11:                                               ; preds = %2
  %12 = getelementptr inbounds [4096 x i8], ptr %6, i64 0, i64 0
  %13 = load ptr, ptr %4, align 8, !tbaa !4
  %14 = load ptr, ptr %5, align 8, !tbaa !22
  %15 = call ptr @ps_files_path_create(ptr noundef %12, i64 noundef 4096, ptr noundef %13, ptr noundef %14)
  %16 = icmp ne ptr %15, null
  br i1 %16, label %18, label %17

17:                                               ; preds = %11, %2
  store i32 -1, ptr %3, align 4
  store i32 1, ptr %8, align 4
  br label %24

18:                                               ; preds = %11
  %19 = getelementptr inbounds [4096 x i8], ptr %6, i64 0, i64 0
  %20 = call i32 @stat(ptr noundef %19, ptr noundef %7) #13
  %21 = icmp ne i32 %20, 0
  br i1 %21, label %22, label %23

22:                                               ; preds = %18
  store i32 -1, ptr %3, align 4
  store i32 1, ptr %8, align 4
  br label %24

23:                                               ; preds = %18
  store i32 0, ptr %3, align 4
  store i32 1, ptr %8, align 4
  br label %24

24:                                               ; preds = %23, %22, %17
  call void @llvm.lifetime.end.p0(i64 144, ptr %7) #13
  call void @llvm.lifetime.end.p0(i64 4096, ptr %6) #13
  %25 = load i32, ptr %3, align 4
  ret i32 %25
}

; Function Attrs: nounwind uwtable
define hidden i32 @ps_validate_sid_files(ptr noundef %0, ptr noundef %1) #0 {
  %3 = alloca ptr, align 8
  %4 = alloca ptr, align 8
  %5 = alloca ptr, align 8
  store ptr %0, ptr %3, align 8, !tbaa !4
  store ptr %1, ptr %4, align 8, !tbaa !22
  call void @llvm.lifetime.start.p0(i64 8, ptr %5) #13
  %6 = load ptr, ptr %3, align 8, !tbaa !4
  %7 = load ptr, ptr %6, align 8, !tbaa !4
  store ptr %7, ptr %5, align 8, !tbaa !4
  %8 = load ptr, ptr %5, align 8, !tbaa !4
  %9 = load ptr, ptr %4, align 8, !tbaa !22
  %10 = call i32 @ps_files_key_exists(ptr noundef %8, ptr noundef %9)
  call void @llvm.lifetime.end.p0(i64 8, ptr %5) #13
  ret i32 %10
}