; Function Attrs: nofree nounwind uwtable
define hidden range(i32 -1, 1) i32 @ps_validate_sid_files(ptr noundef readonly captures(none) %0, ptr noundef readonly captures(address_is_null) %1) #1 {
  %3 = alloca [4096 x i8], align 16
  %4 = alloca %struct.stat, align 8
  %5 = load ptr, ptr %0, align 8, !tbaa !24
  call void @llvm.lifetime.start.p0(i64 4096, ptr nonnull %3) #15
  call void @llvm.lifetime.start.p0(i64 144, ptr nonnull %4) #15
  call void @llvm.memset.p0.i64(ptr noundef nonnull align 8 dereferenceable(144) %4, i8 0, i64 144, i1 false)
  %.not.i = icmp eq ptr %1, null
  %.not.i.i = icmp eq ptr %5, null
  %or.cond.i = or i1 %.not.i, %.not.i.i
  br i1 %or.cond.i, label %ps_files_key_exists.exit, label %6

6:                                                ; preds = %2
  %7 = getelementptr inbounds nuw i8, ptr %1, i64 16
  %8 = load i64, ptr %7, align 8, !tbaa !22
  %9 = getelementptr inbounds nuw i8, ptr %5, i64 16
  %10 = load i64, ptr %9, align 8, !tbaa !16
  %.not40.i.i = icmp ugt i64 %8, %10
  br i1 %.not40.i.i, label %11, label %ps_files_key_exists.exit

11:                                               ; preds = %6
  %12 = getelementptr inbounds nuw i8, ptr %5, i64 8
  %13 = load ptr, ptr %12, align 8, !tbaa !23
  %14 = getelementptr inbounds nuw i8, ptr %13, i64 16
  %15 = load i64, ptr %14, align 8, !tbaa !22
  %16 = shl i64 %10, 1
  %17 = add i64 %8, -4086
  %18 = add i64 %17, %16
  %19 = add i64 %18, %15
  %20 = icmp ult i64 %19, -4097
  br i1 %20, label %ps_files_key_exists.exit, label %21

21:                                               ; preds = %11
  %22 = getelementptr inbounds nuw i8, ptr %1, i64 24
  %23 = getelementptr inbounds nuw i8, ptr %13, i64 24
  call void @llvm.memcpy.p0.p0.i64(ptr nonnull align 16 %3, ptr nonnull align 8 %23, i64 %15, i1 false)
  %24 = getelementptr inbounds nuw i8, ptr %3, i64 %15
  store i8 47, ptr %24, align 1, !tbaa !4
  %.041.i.i = add i64 %15, 1
  %25 = trunc i64 %10 to i32
  %26 = icmp sgt i32 %25, 0
  br i1 %26, label %.lr.ph.i.i, label %.loopexit.i

.lr.ph.i.i:                                       ; preds = %21, %.lr.ph.i.i
  %.045.i.i = phi i64 [ %.0.i.i, %.lr.ph.i.i ], [ %.041.i.i, %21 ]
  %.0.in44.i.i = phi i64 [ %29, %.lr.ph.i.i ], [ %15, %21 ]
  %.03443.i.i = phi i32 [ %32, %.lr.ph.i.i ], [ 0, %21 ]
  %.03542.i.i = phi ptr [ %27, %.lr.ph.i.i ], [ %22, %21 ]
  %27 = getelementptr inbounds nuw i8, ptr %.03542.i.i, i64 1
  %28 = load i8, ptr %.03542.i.i, align 1, !tbaa !4
  %29 = add i64 %.0.in44.i.i, 2
  %30 = getelementptr inbounds nuw i8, ptr %3, i64 %.045.i.i
  store i8 %28, ptr %30, align 1, !tbaa !4
  %31 = getelementptr inbounds nuw i8, ptr %3, i64 %29
  store i8 47, ptr %31, align 1, !tbaa !4
  %32 = add nuw nsw i32 %.03443.i.i, 1
  %.0.i.i = add i64 %.0.in44.i.i, 3
  %exitcond.not.i = icmp eq i32 %32, %25
  br i1 %exitcond.not.i, label %.loopexit.i, label %.lr.ph.i.i

.loopexit.i:                                      ; preds = %.lr.ph.i.i, %21
  %.0.in.lcssa.i.i = phi i64 [ %15, %21 ], [ %29, %.lr.ph.i.i ]
  %.0.lcssa.i.i = phi i64 [ %.041.i.i, %21 ], [ %.0.i.i, %.lr.ph.i.i ]
  %33 = getelementptr inbounds nuw i8, ptr %3, i64 %.0.lcssa.i.i
  call void @llvm.memcpy.p0.p0.i64(ptr noundef nonnull align 1 dereferenceable(5) %33, ptr noundef nonnull align 1 dereferenceable(5) @.str.12, i64 5, i1 false)
  %34 = getelementptr i8, ptr %3, i64 %.0.in.lcssa.i.i
  %35 = getelementptr i8, ptr %34, i64 6
  call void @llvm.memcpy.p0.p0.i64(ptr nonnull align 1 %35, ptr nonnull readonly align 8 %22, i64 %8, i1 false)
  %36 = getelementptr i8, ptr %35, i64 %8
  store i8 0, ptr %36, align 1, !tbaa !4
  %37 = call i32 @stat(ptr noundef nonnull %3, ptr noundef nonnull %4) #15
  %.not5.i = icmp ne i32 %37, 0
  %..i = sext i1 %.not5.i to i32
  br label %ps_files_key_exists.exit

ps_files_key_exists.exit:                         ; preds = %2, %6, %11, %.loopexit.i
  %.0.i = phi i32 [ -1, %2 ], [ %..i, %.loopexit.i ], [ -1, %11 ], [ -1, %6 ]
  call void @llvm.lifetime.end.p0(i64 144, ptr nonnull %4) #15
  call void @llvm.lifetime.end.p0(i64 4096, ptr nonnull %3) #15
  ret i32 %.0.i
}